; Function Attrs: mustprogress nounwind uwtable
define dso_local void @_ZN4llvm16LTOCodeGenerator25finishOptimizationRemarksEv(ptr noundef nonnull readonly align 8 captures(none) dereferenceable(1680) %0) local_unnamed_addr #1 align 2 {
  %2 = getelementptr inbounds nuw i8, ptr %0, i64 264
  %3 = load ptr, ptr %2, align 8
  %.not = icmp eq ptr %3, null
  br i1 %.not, label %_ZN4llvm11raw_ostream5flushEv.exit, label %4

4:                                                ; preds = %1
  %5 = getelementptr inbounds nuw i8, ptr %3, i64 32
  store i8 1, ptr %5, align 8
  %6 = load ptr, ptr %2, align 8
  %7 = getelementptr inbounds nuw i8, ptr %6, i64 144
  %8 = load ptr, ptr %7, align 8
  %9 = getelementptr inbounds nuw i8, ptr %8, i64 32
  %10 = load ptr, ptr %9, align 8
  %11 = getelementptr inbounds nuw i8, ptr %8, i64 16
  %12 = load ptr, ptr %11, align 8
  %.not.i = icmp eq ptr %10, %12
  br i1 %.not.i, label %_ZN4llvm11raw_ostream5flushEv.exit, label %13

13:                                               ; preds = %4
  tail call void @_ZN4llvm11raw_ostream14flush_nonemptyEv(ptr noundef nonnull align 8 dereferenceable(48) %8) #23
  br label %_ZN4llvm11raw_ostream5flushEv.exit

_ZN4llvm11raw_ostream5flushEv.exit:               ; preds = %13, %4, %1
  ret void
}